target datalayout = "e-m:e-p270:32:32-p271:32:32-p272:64:64-i64:64-i128:128-f80:128-n8:16:32:64-S128"
target triple = "x86_64-pc-linux-gnu"

%"struct.gmx::SelectionTopologyProperties" = type { i8, i8 }

; Function Attrs: mustprogress nounwind uwtable
define linkonce_odr void @_ZN3gmx27SelectionTopologyPropertiesC2Ebb(ptr noundef nonnull align 1 dereferenceable(2) %0, i1 noundef zeroext %1, i1 noundef zeroext %2) unnamed_addr #3 comdat align 2 {
  %4 = alloca ptr, align 8
  %5 = alloca i8, align 1
  %6 = alloca i8, align 1
  store ptr %0, ptr %4, align 8
  %7 = zext i1 %1 to i8
  store i8 %7, ptr %5, align 1
  %8 = zext i1 %2 to i8
  store i8 %8, ptr %6, align 1
  %9 = load ptr, ptr %4, align 8
  %10 = getelementptr inbounds %"struct.gmx::SelectionTopologyProperties", ptr %9, i32 0, i32 0
  %11 = load i8, ptr %5, align 1
  %12 = trunc i8 %11 to i1
  %13 = zext i1 %12 to i8
  store i8 %13, ptr %10, align 1
  %14 = getelementptr inbounds %"struct.gmx::SelectionTopologyProperties", ptr %9, i32 0, i32 1
  %15 = load i8, ptr %6, align 1
  %16 = trunc i8 %15 to i1
  %17 = zext i1 %16 to i8
  store i8 %17, ptr %14, align 1
  ret void
}

; Function Attrs: mustprogress uwtable
define linkonce_odr i16 @_ZN3gmx27SelectionTopologyProperties6massesEv() #0 comdat align 2 {
  %1 = alloca %"struct.gmx::SelectionTopologyProperties", align 1
  call void @_ZN3gmx27SelectionTopologyPropertiesC2Ebb(ptr noundef nonnull align 1 dereferenceable(2) %1, i1 noundef zeroext true, i1 noundef zeroext true)
  %2 = load i16, ptr %1, align 1
  ret i16 %2
}

; Function Attrs: mustprogress nounwind uwtable
define linkonce_odr void @_ZN3gmx27SelectionTopologyProperties5mergeERKS0_(ptr noundef nonnull align 1 dereferenceable(2) %0, ptr noundef nonnull align 1 dereferenceable(2) %1) #3 comdat align 2 {
  %3 = alloca ptr, align 8
  %4 = alloca ptr, align 8
  store ptr %0, ptr %3, align 8
  store ptr %1, ptr %4, align 8
  %5 = load ptr, ptr %3, align 8
  %6 = getelementptr inbounds %"struct.gmx::SelectionTopologyProperties", ptr %5, i32 0, i32 0
  %7 = load i8, ptr %6, align 1
  %8 = trunc i8 %7 to i1
  br i1 %8, label %14, label %9

9:                                                ; preds = %2
  %10 = load ptr, ptr %4, align 8
  %11 = getelementptr inbounds %"struct.gmx::SelectionTopologyProperties", ptr %10, i32 0, i32 0
  %12 = load i8, ptr %11, align 1
  %13 = trunc i8 %12 to i1
  br label %14

14:                                               ; preds = %9, %2
  %15 = phi i1 [ true, %2 ], [ %13, %9 ]
  %16 = getelementptr inbounds %"struct.gmx::SelectionTopologyProperties", ptr %5, i32 0, i32 0
  %17 = zext i1 %15 to i8
  store i8 %17, ptr %16, align 1
  %18 = getelementptr inbounds %"struct.gmx::SelectionTopologyProperties", ptr %5, i32 0, i32 1
  %19 = load i8, ptr %18, align 1
  %20 = trunc i8 %19 to i1
  br i1 %20, label %26, label %21

21:                                               ; preds = %14
  %22 = load ptr, ptr %4, align 8
  %23 = getelementptr inbounds %"struct.gmx::SelectionTopologyProperties", ptr %22, i32 0, i32 1
  %24 = load i8, ptr %23, align 1
  %25 = trunc i8 %24 to i1
  br label %26

26:                                               ; preds = %21, %14
  %27 = phi i1 [ true, %14 ], [ %25, %21 ]
  %28 = getelementptr inbounds %"struct.gmx::SelectionTopologyProperties", ptr %5, i32 0, i32 1
  %29 = zext i1 %27 to i8
  store i8 %29, ptr %28, align 1
  ret void
}

; Function Attrs: mustprogress uwtable
define linkonce_odr i16 @_ZN3gmx27SelectionTopologyProperties8topologyEv() #0 comdat align 2 {
  %1 = alloca %"struct.gmx::SelectionTopologyProperties", align 1
  call void @_ZN3gmx27SelectionTopologyPropertiesC2Ebb(ptr noundef nonnull align 1 dereferenceable(2) %1, i1 noundef zeroext true, i1 noundef zeroext false)
  %2 = load i16, ptr %1, align 1
  ret i16 %2
}

; Function Attrs: mustprogress nounwind uwtable
define linkonce_odr void @_ZN3gmx27SelectionTopologyPropertiesC2Ev(ptr noundef nonnull align 1 dereferenceable(2) %0) unnamed_addr #3 comdat align 2 {
  %2 = alloca ptr, align 8
  store ptr %0, ptr %2, align 8
  %3 = load ptr, ptr %2, align 8
  %4 = getelementptr inbounds %"struct.gmx::SelectionTopologyProperties", ptr %3, i32 0, i32 0
  store i8 0, ptr %4, align 1
  %5 = getelementptr inbounds %"struct.gmx::SelectionTopologyProperties", ptr %3, i32 0, i32 1
  store i8 0, ptr %5, align 1
  ret void
}

; Function Attrs: mustprogress uwtable
define i16 @_ZN3gmx19SelectionCollection4Impl41requiredTopologyPropertiesForPositionTypeERKNSt7__cxx1112basic_stringIcSt11char_traitsIcESaIcEEEb(ptr noundef nonnull align 8 dereferenceable(32) %0, i1 noundef zeroext %1) #0 align 2 {
  %3 = alloca %"struct.gmx::SelectionTopologyProperties", align 1
  %4 = alloca ptr, align 8
  %5 = alloca i8, align 1
  %6 = alloca %"struct.gmx::SelectionTopologyProperties", align 1
  %7 = alloca %"struct.gmx::SelectionTopologyProperties", align 1
  store ptr %0, ptr %4, align 8
  %8 = zext i1 %1 to i8
  store i8 %8, ptr %5, align 1
  call void @_ZN3gmx27SelectionTopologyPropertiesC2Ev(ptr noundef nonnull align 1 dereferenceable(2) %3)
  %9 = load ptr, ptr %4, align 8
  %10 = call noundef zeroext i1 @_ZNKSt7__cxx1112basic_stringIcSt11char_traitsIcESaIcEE5emptyEv(ptr noundef nonnull align 8 dereferenceable(32) %9) #14
  br i1 %10, label %23, label %11

11:                                               ; preds = %2
  %12 = load ptr, ptr %4, align 8
  %13 = call noundef ptr @_ZNKSt7__cxx1112basic_stringIcSt11char_traitsIcESaIcEE5c_strEv(ptr noundef nonnull align 8 dereferenceable(32) %12) #14
  %14 = load i8, ptr %5, align 1
  %15 = trunc i8 %14 to i1
  %16 = call noundef i32 @_ZN3gmx29PositionCalculationCollection27requiredTopologyInfoForTypeEPKcb(ptr noundef %13, i1 noundef zeroext %15)
  switch i32 %16, label %22 [
    i32 0, label %17
    i32 1, label %18
    i32 2, label %20
  ]

17:                                               ; preds = %11
  br label %22

18:                                               ; preds = %11
  %19 = call i16 @_ZN3gmx27SelectionTopologyProperties8topologyEv()
  store i16 %19, ptr %6, align 1
  call void @_ZN3gmx27SelectionTopologyProperties5mergeERKS0_(ptr noundef nonnull align 1 dereferenceable(2) %3, ptr noundef nonnull align 1 dereferenceable(2) %6)
  br label %22

20:                                               ; preds = %11
  %21 = call i16 @_ZN3gmx27SelectionTopologyProperties6massesEv()
  store i16 %21, ptr %7, align 1
  call void @_ZN3gmx27SelectionTopologyProperties5mergeERKS0_(ptr noundef nonnull align 1 dereferenceable(2) %3, ptr noundef nonnull align 1 dereferenceable(2) %7)
  br label %22

22:                                               ; preds = %20, %18, %17, %11
  br label %23

23:                                               ; preds = %22, %2
  %24 = load i16, ptr %3, align 1
  ret i16 %24
}