; Function Attrs: mustprogress uwtable
define i16 @_ZN3gmx19SelectionCollection4Impl41requiredTopologyPropertiesForPositionTypeERKNSt7__cxx1112basic_stringIcSt11char_traitsIcESaIcEEEb(ptr noundef nonnull align 8 dereferenceable(32) %0, i1 noundef zeroext %1) local_unnamed_addr #0 align 2 {
  %3 = tail call noundef zeroext i1 @_ZNKSt7__cxx1112basic_stringIcSt11char_traitsIcESaIcEE5emptyEv(ptr noundef nonnull align 8 dereferenceable(32) %0) #22
  br i1 %3, label %9, label %4

4:                                                ; preds = %2
  %5 = tail call noundef ptr @_ZNKSt7__cxx1112basic_stringIcSt11char_traitsIcESaIcEE5c_strEv(ptr noundef nonnull align 8 dereferenceable(32) %0) #22
  %6 = tail call noundef i32 @_ZN3gmx29PositionCalculationCollection27requiredTopologyInfoForTypeEPKcb(ptr noundef %5, i1 noundef zeroext %1)
  switch i32 %6, label %9 [
    i32 2, label %8
    i32 1, label %7
  ]

7:                                                ; preds = %4
  br label %9

8:                                                ; preds = %4
  br label %9

9:                                                ; preds = %4, %7, %8, %2
  %.sroa.04.0 = phi i16 [ 0, %2 ], [ 0, %4 ], [ 1, %7 ], [ 1, %8 ]
  %.sroa.6.0 = phi i16 [ 0, %2 ], [ 0, %4 ], [ 0, %7 ], [ 256, %8 ]
  %.sroa.04.0.insert.insert = or disjoint i16 %.sroa.6.0, %.sroa.04.0
  ret i16 %.sroa.04.0.insert.insert
}